target datalayout = "e-m:e-p270:32:32-p271:32:32-p272:64:64-i64:64-i128:128-f80:128-n8:16:32:64-S128"
target triple = "x86_64-unknown-linux-gnu"

%"class.cvc5::internal::NodeTemplate" = type { ptr }
%"class.cvc5::internal::theory::bags::CardSolver" = type { %"class.cvc5::internal::EnvObj", ptr, %"class.cvc5::internal::theory::bags::InferenceGenerator", ptr, ptr, %"class.std::map", %"class.cvc5::internal::NodeTemplate", %"class.cvc5::internal::NodeTemplate", %"class.cvc5::internal::NodeTemplate", %"class.cvc5::internal::NodeTemplate" }
%"class.cvc5::internal::EnvObj" = type { ptr, ptr }
%"class.cvc5::internal::theory::bags::InferenceGenerator" = type { ptr, ptr, ptr, ptr, %"class.cvc5::internal::NodeTemplate", %"class.cvc5::internal::NodeTemplate", %"class.cvc5::internal::NodeTemplate" }
%"class.std::map" = type { %"class.std::_Rb_tree" }
%"class.std::_Rb_tree" = type { %"struct.std::_Rb_tree<cvc5::internal::NodeTemplate<true>, std::pair<const cvc5::internal::NodeTemplate<true>, std::set<std::vector<cvc5::internal::NodeTemplate<true>>>>, std::_Select1st<std::pair<const cvc5::internal::NodeTemplate<true>, std::set<std::vector<cvc5::internal::NodeTemplate<true>>>>>, std::less<cvc5::internal::NodeTemplate<true>>>::_Rb_tree_impl" }
%"struct.std::_Rb_tree<cvc5::internal::NodeTemplate<true>, std::pair<const cvc5::internal::NodeTemplate<true>, std::set<std::vector<cvc5::internal::NodeTemplate<true>>>>, std::_Select1st<std::pair<const cvc5::internal::NodeTemplate<true>, std::set<std::vector<cvc5::internal::NodeTemplate<true>>>>>, std::less<cvc5::internal::NodeTemplate<true>>>::_Rb_tree_impl" = type { %"struct.std::_Rb_tree_key_compare", %"struct.std::_Rb_tree_header" }
%"struct.std::_Rb_tree_key_compare" = type { %"struct.std::less" }
%"struct.std::less" = type { i8 }
%"struct.std::_Rb_tree_header" = type { %"struct.std::_Rb_tree_node_base", i64 }
%"struct.std::_Rb_tree_node_base" = type { i32, ptr, ptr, ptr }

@_ZTVN4cvc58internal6theory4bags10CardSolverE = hidden unnamed_addr constant { [4 x ptr] } { [4 x ptr] [ptr null, ptr @_ZTIN4cvc58internal6theory4bags10CardSolverE, ptr @_ZN4cvc58internal6theory4bags10CardSolverD1Ev, ptr @_ZN4cvc58internal6theory4bags10CardSolverD0Ev] }, align 8

; Function Attrs: mustprogress nounwind uwtable
define linkonce_odr hidden void @_ZNSt15__new_allocatorISt13_Rb_tree_nodeISt4pairIKN4cvc58internal12NodeTemplateILb1EEESt3setISt6vectorIS5_SaIS5_EESt4lessISA_ESaISA_EEEEED2Ev(ptr noundef nonnull align 1 dereferenceable(1) %this) unnamed_addr #5 comdat align 2 {
entry:
  %this.addr = alloca ptr, align 8
  store ptr %this, ptr %this.addr, align 8
  ret void
}

; Function Attrs: mustprogress nounwind uwtable
define linkonce_odr hidden void @_ZNSaISt13_Rb_tree_nodeISt4pairIKN4cvc58internal12NodeTemplateILb1EEESt3setISt6vectorIS4_SaIS4_EESt4lessIS9_ESaIS9_EEEEED2Ev(ptr noundef nonnull align 1 dereferenceable(1) %this) unnamed_addr #5 comdat align 2 {
entry:
  %this.addr = alloca ptr, align 8
  store ptr %this, ptr %this.addr, align 8
  %this1 = load ptr, ptr %this.addr, align 8
  call void @_ZNSt15__new_allocatorISt13_Rb_tree_nodeISt4pairIKN4cvc58internal12NodeTemplateILb1EEESt3setISt6vectorIS5_SaIS5_EESt4lessISA_ESaISA_EEEEED2Ev(ptr noundef nonnull align 1 dereferenceable(1) %this1) #3
  ret void
}

; Function Attrs: mustprogress nounwind uwtable
define linkonce_odr hidden noundef ptr @_ZNKSt8_Rb_treeIN4cvc58internal12NodeTemplateILb1EEESt4pairIKS3_St3setISt6vectorIS3_SaIS3_EESt4lessIS9_ESaIS9_EEESt10_Select1stISE_ESA_IS3_ESaISE_EE9_M_mbeginEv(ptr noundef nonnull align 8 dereferenceable(48) %this) #5 comdat align 2 {
entry:
  %this.addr = alloca ptr, align 8
  store ptr %this, ptr %this.addr, align 8
  %this1 = load ptr, ptr %this.addr, align 8
  %_M_impl = getelementptr inbounds %"class.std::_Rb_tree", ptr %this1, i32 0, i32 0
  %add.ptr = getelementptr inbounds i8, ptr %_M_impl, i64 8
  %_M_header = getelementptr inbounds %"struct.std::_Rb_tree_header", ptr %add.ptr, i32 0, i32 0
  %_M_parent = getelementptr inbounds %"struct.std::_Rb_tree_node_base", ptr %_M_header, i32 0, i32 1
  %0 = load ptr, ptr %_M_parent, align 8
  ret ptr %0
}

; Function Attrs: mustprogress nounwind uwtable
define linkonce_odr hidden void @_ZNSt8_Rb_treeIN4cvc58internal12NodeTemplateILb1EEESt4pairIKS3_St3setISt6vectorIS3_SaIS3_EESt4lessIS9_ESaIS9_EEESt10_Select1stISE_ESA_IS3_ESaISE_EE13_Rb_tree_implISH_Lb1EED2Ev(ptr noundef nonnull align 8 dereferenceable(48) %this) unnamed_addr #5 comdat align 2 {
entry:
  %this.addr = alloca ptr, align 8
  store ptr %this, ptr %this.addr, align 8
  %this1 = load ptr, ptr %this.addr, align 8
  call void @_ZNSaISt13_Rb_tree_nodeISt4pairIKN4cvc58internal12NodeTemplateILb1EEESt3setISt6vectorIS4_SaIS4_EESt4lessIS9_ESaIS9_EEEEED2Ev(ptr noundef nonnull align 1 dereferenceable(1) %this1) #3
  ret void
}

; Function Attrs: mustprogress nounwind uwtable
define linkonce_odr hidden noundef ptr @_ZNSt8_Rb_treeIN4cvc58internal12NodeTemplateILb1EEESt4pairIKS3_St3setISt6vectorIS3_SaIS3_EESt4lessIS9_ESaIS9_EEESt10_Select1stISE_ESA_IS3_ESaISE_EE8_M_beginEv(ptr noundef nonnull align 8 dereferenceable(48) %this) #5 comdat align 2 {
entry:
  %this.addr = alloca ptr, align 8
  store ptr %this, ptr %this.addr, align 8
  %this1 = load ptr, ptr %this.addr, align 8
  %call = call noundef ptr @_ZNKSt8_Rb_treeIN4cvc58internal12NodeTemplateILb1EEESt4pairIKS3_St3setISt6vectorIS3_SaIS3_EESt4lessIS9_ESaIS9_EEESt10_Select1stISE_ESA_IS3_ESaISE_EE9_M_mbeginEv(ptr noundef nonnull align 8 dereferenceable(48) %this1) #3
  ret ptr %call
}

; Function Attrs: mustprogress nounwind uwtable
define linkonce_odr hidden void @_ZNSt8_Rb_treeIN4cvc58internal12NodeTemplateILb1EEESt4pairIKS3_St3setISt6vectorIS3_SaIS3_EESt4lessIS9_ESaIS9_EEESt10_Select1stISE_ESA_IS3_ESaISE_EED2Ev(ptr noundef nonnull align 8 dereferenceable(48) %this) unnamed_addr #5 comdat align 2 personality ptr @__gxx_personality_v0 {
entry:
  %this.addr = alloca ptr, align 8
  store ptr %this, ptr %this.addr, align 8
  %this1 = load ptr, ptr %this.addr, align 8
  %call = call noundef ptr @_ZNSt8_Rb_treeIN4cvc58internal12NodeTemplateILb1EEESt4pairIKS3_St3setISt6vectorIS3_SaIS3_EESt4lessIS9_ESaIS9_EEESt10_Select1stISE_ESA_IS3_ESaISE_EE8_M_beginEv(ptr noundef nonnull align 8 dereferenceable(48) %this1) #3
  invoke void @_ZNSt8_Rb_treeIN4cvc58internal12NodeTemplateILb1EEESt4pairIKS3_St3setISt6vectorIS3_SaIS3_EESt4lessIS9_ESaIS9_EEESt10_Select1stISE_ESA_IS3_ESaISE_EE8_M_eraseEPSt13_Rb_tree_nodeISE_E(ptr noundef nonnull align 8 dereferenceable(48) %this1, ptr noundef %call)
          to label %invoke.cont unwind label %terminate.lpad

invoke.cont:                                      ; preds = %entry
  %_M_impl = getelementptr inbounds %"class.std::_Rb_tree", ptr %this1, i32 0, i32 0
  call void @_ZNSt8_Rb_treeIN4cvc58internal12NodeTemplateILb1EEESt4pairIKS3_St3setISt6vectorIS3_SaIS3_EESt4lessIS9_ESaIS9_EEESt10_Select1stISE_ESA_IS3_ESaISE_EE13_Rb_tree_implISH_Lb1EED2Ev(ptr noundef nonnull align 8 dereferenceable(48) %_M_impl) #3
  ret void

terminate.lpad:                                   ; preds = %entry
  %0 = landingpad { ptr, i32 }
          catch ptr null
  %1 = extractvalue { ptr, i32 } %0, 0
  call void @__clang_call_terminate(ptr %1) #15
  unreachable
}

; Function Attrs: mustprogress uwtable
define linkonce_odr hidden void @_ZN4cvc58internal4expr9NodeValue3decEv(ptr noundef nonnull align 8 dereferenceable(16) %this) #4 comdat align 2 {
entry:
  %this.addr = alloca ptr, align 8
  store ptr %this, ptr %this.addr, align 8
  %this1 = load ptr, ptr %this.addr, align 8
  %bf.load = load i64, ptr %this1, align 8
  %bf.lshr = lshr i64 %bf.load, 40
  %bf.clear = and i64 %bf.lshr, 1048575
  %bf.cast = trunc i64 %bf.clear to i32
  %cmp = icmp ult i32 %bf.cast, 1048575
  br i1 %cmp, label %if.then, label %if.end14

if.then:                                          ; preds = %entry
  %bf.load2 = load i64, ptr %this1, align 8
  %bf.lshr3 = lshr i64 %bf.load2, 40
  %bf.clear4 = and i64 %bf.lshr3, 1048575
  %bf.cast5 = trunc i64 %bf.clear4 to i32
  %dec = add i32 %bf.cast5, -1
  %0 = zext i32 %dec to i64
  %bf.load6 = load i64, ptr %this1, align 8
  %bf.value = and i64 %0, 1048575
  %bf.shl = shl i64 %bf.value, 40
  %bf.clear7 = and i64 %bf.load6, -1152920405095219201
  %bf.set = or i64 %bf.clear7, %bf.shl
  store i64 %bf.set, ptr %this1, align 8
  %bf.load8 = load i64, ptr %this1, align 8
  %bf.lshr9 = lshr i64 %bf.load8, 40
  %bf.clear10 = and i64 %bf.lshr9, 1048575
  %bf.cast11 = trunc i64 %bf.clear10 to i32
  %cmp12 = icmp eq i32 %bf.cast11, 0
  br i1 %cmp12, label %if.then13, label %if.end

if.then13:                                        ; preds = %if.then
  call void @_ZN4cvc58internal4expr9NodeValue15markForDeletionEv(ptr noundef nonnull align 8 dereferenceable(16) %this1)
  br label %if.end

if.end:                                           ; preds = %if.then13, %if.then
  br label %if.end14

if.end14:                                         ; preds = %if.end, %entry
  ret void
}

; Function Attrs: mustprogress nounwind uwtable
define linkonce_odr hidden void @_ZN4cvc58internal6EnvObjD2Ev(ptr noundef nonnull align 8 dereferenceable(16) %this) unnamed_addr #5 comdat align 2 {
entry:
  %this.addr = alloca ptr, align 8
  store ptr %this, ptr %this.addr, align 8
  ret void
}

; Function Attrs: mustprogress nounwind uwtable
define linkonce_odr hidden void @_ZNSt3mapIN4cvc58internal12NodeTemplateILb1EEESt3setISt6vectorIS3_SaIS3_EESt4lessIS7_ESaIS7_EES8_IS3_ESaISt4pairIKS3_SB_EEED2Ev(ptr noundef nonnull align 8 dereferenceable(48) %this) unnamed_addr #5 comdat align 2 {
entry:
  %this.addr = alloca ptr, align 8
  store ptr %this, ptr %this.addr, align 8
  %this1 = load ptr, ptr %this.addr, align 8
  %_M_t = getelementptr inbounds %"class.std::map", ptr %this1, i32 0, i32 0
  call void @_ZNSt8_Rb_treeIN4cvc58internal12NodeTemplateILb1EEESt4pairIKS3_St3setISt6vectorIS3_SaIS3_EESt4lessIS9_ESaIS9_EEESt10_Select1stISE_ESA_IS3_ESaISE_EED2Ev(ptr noundef nonnull align 8 dereferenceable(48) %_M_t) #3
  ret void
}

; Function Attrs: mustprogress nounwind uwtable
define linkonce_odr hidden void @_ZN4cvc58internal12NodeTemplateILb1EED2Ev(ptr noundef nonnull align 8 dereferenceable(8) %this) unnamed_addr #5 comdat align 2 personality ptr @__gxx_personality_v0 {
entry:
  %this.addr = alloca ptr, align 8
  store ptr %this, ptr %this.addr, align 8
  %this1 = load ptr, ptr %this.addr, align 8
  %d_nv = getelementptr inbounds %"class.cvc5::internal::NodeTemplate", ptr %this1, i32 0, i32 0
  %0 = load ptr, ptr %d_nv, align 8
  invoke void @_ZN4cvc58internal4expr9NodeValue3decEv(ptr noundef nonnull align 8 dereferenceable(16) %0)
          to label %invoke.cont unwind label %terminate.lpad

invoke.cont:                                      ; preds = %entry
  ret void

terminate.lpad:                                   ; preds = %entry
  %1 = landingpad { ptr, i32 }
          catch ptr null
  %2 = extractvalue { ptr, i32 } %1, 0
  call void @__clang_call_terminate(ptr %2) #15
  unreachable
}

; Function Attrs: mustprogress nounwind uwtable
define hidden void @_ZN4cvc58internal6theory4bags10CardSolverD2Ev(ptr noundef nonnull align 8 dereferenceable(176) %this) unnamed_addr #5 align 2 {
entry:
  %this.addr = alloca ptr, align 8
  store ptr %this, ptr %this.addr, align 8
  %this1 = load ptr, ptr %this.addr, align 8
  store ptr getelementptr inbounds ({ [4 x ptr] }, ptr @_ZTVN4cvc58internal6theory4bags10CardSolverE, i32 0, i32 0, i32 2), ptr %this1, align 8
  %d_one = getelementptr inbounds %"class.cvc5::internal::theory::bags::CardSolver", ptr %this1, i32 0, i32 9
  call void @_ZN4cvc58internal12NodeTemplateILb1EED2Ev(ptr noundef nonnull align 8 dereferenceable(8) %d_one) #3
  %d_zero = getelementptr inbounds %"class.cvc5::internal::theory::bags::CardSolver", ptr %this1, i32 0, i32 8
  call void @_ZN4cvc58internal12NodeTemplateILb1EED2Ev(ptr noundef nonnull align 8 dereferenceable(8) %d_zero) #3
  %d_false = getelementptr inbounds %"class.cvc5::internal::theory::bags::CardSolver", ptr %this1, i32 0, i32 7
  call void @_ZN4cvc58internal12NodeTemplateILb1EED2Ev(ptr noundef nonnull align 8 dereferenceable(8) %d_false) #3
  %d_true = getelementptr inbounds %"class.cvc5::internal::theory::bags::CardSolver", ptr %this1, i32 0, i32 6
  call void @_ZN4cvc58internal12NodeTemplateILb1EED2Ev(ptr noundef nonnull align 8 dereferenceable(8) %d_true) #3
  %d_cardGraph = getelementptr inbounds %"class.cvc5::internal::theory::bags::CardSolver", ptr %this1, i32 0, i32 5
  call void @_ZNSt3mapIN4cvc58internal12NodeTemplateILb1EEESt3setISt6vectorIS3_SaIS3_EESt4lessIS7_ESaIS7_EES8_IS3_ESaISt4pairIKS3_SB_EEED2Ev(ptr noundef nonnull align 8 dereferenceable(48) %d_cardGraph) #3
  %d_ig = getelementptr inbounds %"class.cvc5::internal::theory::bags::CardSolver", ptr %this1, i32 0, i32 2
  call void @_ZN4cvc58internal6theory4bags18InferenceGeneratorD2Ev(ptr noundef nonnull align 8 dereferenceable(56) %d_ig) #3
  call void @_ZN4cvc58internal6EnvObjD2Ev(ptr noundef nonnull align 8 dereferenceable(16) %this1) #3
  ret void
}