; Function Attrs: mustprogress nounwind uwtable
define hidden void @_ZN4cvc58internal6theory4bags10CardSolverD2Ev(ptr noundef nonnull align 8 dereferenceable(176) %this) unnamed_addr #4 align 2 personality ptr @__gxx_personality_v0 {
entry:
  store ptr getelementptr inbounds ({ [4 x ptr] }, ptr @_ZTVN4cvc58internal6theory4bags10CardSolverE, i64 0, i32 0, i64 2), ptr %this, align 8
  %d_one = getelementptr inbounds i8, ptr %this, i64 168
  %0 = load ptr, ptr %d_one, align 8
  %bf.load.i.i = load i64, ptr %0, align 8
  %1 = and i64 %bf.load.i.i, 1152920405095219200
  %cmp.not.i.i = icmp eq i64 %1, 1152920405095219200
  br i1 %cmp.not.i.i, label %_ZN4cvc58internal12NodeTemplateILb1EED2Ev.exit, label %if.then.i.i

if.then.i.i:                                      ; preds = %entry
  %bf.value.i.i = add i64 %bf.load.i.i, 1152920405095219200
  %bf.shl.i.i = and i64 %bf.value.i.i, 1152920405095219200
  %bf.clear7.i.i = and i64 %bf.load.i.i, -1152920405095219201
  %bf.set.i.i = or disjoint i64 %bf.shl.i.i, %bf.clear7.i.i
  store i64 %bf.set.i.i, ptr %0, align 8
  %cmp12.i.i = icmp eq i64 %bf.shl.i.i, 0
  br i1 %cmp12.i.i, label %if.then13.i.i, label %_ZN4cvc58internal12NodeTemplateILb1EED2Ev.exit

if.then13.i.i:                                    ; preds = %if.then.i.i
  invoke void @_ZN4cvc58internal4expr9NodeValue15markForDeletionEv(ptr noundef nonnull align 8 dereferenceable(16) %0)
          to label %_ZN4cvc58internal12NodeTemplateILb1EED2Ev.exit unwind label %terminate.lpad.i

terminate.lpad.i:                                 ; preds = %if.then13.i.i
  %2 = landingpad { ptr, i32 }
          catch ptr null
  %3 = extractvalue { ptr, i32 } %2, 0
  tail call void @__clang_call_terminate(ptr %3) #19
  unreachable

_ZN4cvc58internal12NodeTemplateILb1EED2Ev.exit:   ; preds = %entry, %if.then.i.i, %if.then13.i.i
  %d_zero = getelementptr inbounds i8, ptr %this, i64 160
  %4 = load ptr, ptr %d_zero, align 8
  %bf.load.i.i1 = load i64, ptr %4, align 8
  %5 = and i64 %bf.load.i.i1, 1152920405095219200
  %cmp.not.i.i2 = icmp eq i64 %5, 1152920405095219200
  br i1 %cmp.not.i.i2, label %_ZN4cvc58internal12NodeTemplateILb1EED2Ev.exit11, label %if.then.i.i3

if.then.i.i3:                                     ; preds = %_ZN4cvc58internal12NodeTemplateILb1EED2Ev.exit
  %bf.value.i.i4 = add i64 %bf.load.i.i1, 1152920405095219200
  %bf.shl.i.i5 = and i64 %bf.value.i.i4, 1152920405095219200
  %bf.clear7.i.i6 = and i64 %bf.load.i.i1, -1152920405095219201
  %bf.set.i.i7 = or disjoint i64 %bf.shl.i.i5, %bf.clear7.i.i6
  store i64 %bf.set.i.i7, ptr %4, align 8
  %cmp12.i.i8 = icmp eq i64 %bf.shl.i.i5, 0
  br i1 %cmp12.i.i8, label %if.then13.i.i9, label %_ZN4cvc58internal12NodeTemplateILb1EED2Ev.exit11

if.then13.i.i9:                                   ; preds = %if.then.i.i3
  invoke void @_ZN4cvc58internal4expr9NodeValue15markForDeletionEv(ptr noundef nonnull align 8 dereferenceable(16) %4)
          to label %_ZN4cvc58internal12NodeTemplateILb1EED2Ev.exit11 unwind label %terminate.lpad.i10

terminate.lpad.i10:                               ; preds = %if.then13.i.i9
  %6 = landingpad { ptr, i32 }
          catch ptr null
  %7 = extractvalue { ptr, i32 } %6, 0
  tail call void @__clang_call_terminate(ptr %7) #19
  unreachable

_ZN4cvc58internal12NodeTemplateILb1EED2Ev.exit11: ; preds = %_ZN4cvc58internal12NodeTemplateILb1EED2Ev.exit, %if.then.i.i3, %if.then13.i.i9
  %d_false = getelementptr inbounds i8, ptr %this, i64 152
  %8 = load ptr, ptr %d_false, align 8
  %bf.load.i.i12 = load i64, ptr %8, align 8
  %9 = and i64 %bf.load.i.i12, 1152920405095219200
  %cmp.not.i.i13 = icmp eq i64 %9, 1152920405095219200
  br i1 %cmp.not.i.i13, label %_ZN4cvc58internal12NodeTemplateILb1EED2Ev.exit22, label %if.then.i.i14

if.then.i.i14:                                    ; preds = %_ZN4cvc58internal12NodeTemplateILb1EED2Ev.exit11
  %bf.value.i.i15 = add i64 %bf.load.i.i12, 1152920405095219200
  %bf.shl.i.i16 = and i64 %bf.value.i.i15, 1152920405095219200
  %bf.clear7.i.i17 = and i64 %bf.load.i.i12, -1152920405095219201
  %bf.set.i.i18 = or disjoint i64 %bf.shl.i.i16, %bf.clear7.i.i17
  store i64 %bf.set.i.i18, ptr %8, align 8
  %cmp12.i.i19 = icmp eq i64 %bf.shl.i.i16, 0
  br i1 %cmp12.i.i19, label %if.then13.i.i20, label %_ZN4cvc58internal12NodeTemplateILb1EED2Ev.exit22

if.then13.i.i20:                                  ; preds = %if.then.i.i14
  invoke void @_ZN4cvc58internal4expr9NodeValue15markForDeletionEv(ptr noundef nonnull align 8 dereferenceable(16) %8)
          to label %_ZN4cvc58internal12NodeTemplateILb1EED2Ev.exit22 unwind label %terminate.lpad.i21

terminate.lpad.i21:                               ; preds = %if.then13.i.i20
  %10 = landingpad { ptr, i32 }
          catch ptr null
  %11 = extractvalue { ptr, i32 } %10, 0
  tail call void @__clang_call_terminate(ptr %11) #19
  unreachable

_ZN4cvc58internal12NodeTemplateILb1EED2Ev.exit22: ; preds = %_ZN4cvc58internal12NodeTemplateILb1EED2Ev.exit11, %if.then.i.i14, %if.then13.i.i20
  %d_true = getelementptr inbounds i8, ptr %this, i64 144
  %12 = load ptr, ptr %d_true, align 8
  %bf.load.i.i23 = load i64, ptr %12, align 8
  %13 = and i64 %bf.load.i.i23, 1152920405095219200
  %cmp.not.i.i24 = icmp eq i64 %13, 1152920405095219200
  br i1 %cmp.not.i.i24, label %_ZN4cvc58internal12NodeTemplateILb1EED2Ev.exit33, label %if.then.i.i25

if.then.i.i25:                                    ; preds = %_ZN4cvc58internal12NodeTemplateILb1EED2Ev.exit22
  %bf.value.i.i26 = add i64 %bf.load.i.i23, 1152920405095219200
  %bf.shl.i.i27 = and i64 %bf.value.i.i26, 1152920405095219200
  %bf.clear7.i.i28 = and i64 %bf.load.i.i23, -1152920405095219201
  %bf.set.i.i29 = or disjoint i64 %bf.shl.i.i27, %bf.clear7.i.i28
  store i64 %bf.set.i.i29, ptr %12, align 8
  %cmp12.i.i30 = icmp eq i64 %bf.shl.i.i27, 0
  br i1 %cmp12.i.i30, label %if.then13.i.i31, label %_ZN4cvc58internal12NodeTemplateILb1EED2Ev.exit33

if.then13.i.i31:                                  ; preds = %if.then.i.i25
  invoke void @_ZN4cvc58internal4expr9NodeValue15markForDeletionEv(ptr noundef nonnull align 8 dereferenceable(16) %12)
          to label %_ZN4cvc58internal12NodeTemplateILb1EED2Ev.exit33 unwind label %terminate.lpad.i32

terminate.lpad.i32:                               ; preds = %if.then13.i.i31
  %14 = landingpad { ptr, i32 }
          catch ptr null
  %15 = extractvalue { ptr, i32 } %14, 0
  tail call void @__clang_call_terminate(ptr %15) #19
  unreachable

_ZN4cvc58internal12NodeTemplateILb1EED2Ev.exit33: ; preds = %_ZN4cvc58internal12NodeTemplateILb1EED2Ev.exit22, %if.then.i.i25, %if.then13.i.i31
  %d_cardGraph = getelementptr inbounds i8, ptr %this, i64 96
  %_M_parent.i.i.i.i = getelementptr inbounds i8, ptr %this, i64 112
  %16 = load ptr, ptr %_M_parent.i.i.i.i, align 8
  invoke void @_ZNSt8_Rb_treeIN4cvc58internal12NodeTemplateILb1EEESt4pairIKS3_St3setISt6vectorIS3_SaIS3_EESt4lessIS9_ESaIS9_EEESt10_Select1stISE_ESA_IS3_ESaISE_EE8_M_eraseEPSt13_Rb_tree_nodeISE_E(ptr noundef nonnull align 8 dereferenceable(48) %d_cardGraph, ptr noundef %16)
          to label %_ZNSt3mapIN4cvc58internal12NodeTemplateILb1EEESt3setISt6vectorIS3_SaIS3_EESt4lessIS7_ESaIS7_EES8_IS3_ESaISt4pairIKS3_SB_EEED2Ev.exit unwind label %terminate.lpad.i.i

terminate.lpad.i.i:                               ; preds = %_ZN4cvc58internal12NodeTemplateILb1EED2Ev.exit33
  %17 = landingpad { ptr, i32 }
          catch ptr null
  %18 = extractvalue { ptr, i32 } %17, 0
  tail call void @__clang_call_terminate(ptr %18) #19
  unreachable

_ZNSt3mapIN4cvc58internal12NodeTemplateILb1EEESt3setISt6vectorIS3_SaIS3_EESt4lessIS7_ESaIS7_EES8_IS3_ESaISt4pairIKS3_SB_EEED2Ev.exit: ; preds = %_ZN4cvc58internal12NodeTemplateILb1EED2Ev.exit33
  %d_ig = getelementptr inbounds i8, ptr %this, i64 24
  tail call void @_ZN4cvc58internal6theory4bags18InferenceGeneratorD2Ev(ptr noundef nonnull align 8 dereferenceable(56) %d_ig) #17
  ret void
}